; Function Attrs: nofree null_pointer_is_valid sspstrong uwtable
define internal void @format_meters_per_second(ptr noundef %0, i32 noundef %1) #2 {
  %3 = sitofp i32 %1 to double
  %4 = fmul double %3, 0x3EF0000000000000
  %5 = tail call double @llvm.fabs.f64(double %4)
  %6 = tail call double @log10(double noundef %5) #8
  %7 = fdiv double %6, 3.000000e+00
  %8 = tail call double @llvm.floor.f64(double %7)
  %9 = fptosi double %8 to i32
  %10 = mul i32 %9, 3
  switch i32 %10, label %get_engr_prefix.exit [
    i32 -15, label %.sink.split.i
    i32 -12, label %11
    i32 -9, label %12
    i32 -6, label %13
    i32 -3, label %14
    i32 3, label %15
    i32 6, label %16
    i32 9, label %17
    i32 12, label %18
  ]

11:                                               ; preds = %2
  br label %.sink.split.i

12:                                               ; preds = %2
  br label %.sink.split.i

13:                                               ; preds = %2
  br label %.sink.split.i

14:                                               ; preds = %2
  br label %.sink.split.i

15:                                               ; preds = %2
  br label %.sink.split.i

16:                                               ; preds = %2
  br label %.sink.split.i

17:                                               ; preds = %2
  br label %.sink.split.i

18:                                               ; preds = %2
  br label %.sink.split.i

.sink.split.i:                                    ; preds = %18, %17, %16, %15, %14, %13, %12, %11, %2
  %.sink12.i = phi double [ 0x3D719799812DEA11, %18 ], [ 1.000000e-09, %17 ], [ 0x3EB0C6F7A0B5ED8D, %16 ], [ 1.000000e-03, %15 ], [ 1.000000e+03, %14 ], [ 1.000000e+06, %13 ], [ 1.000000e+09, %12 ], [ 1.000000e+12, %11 ], [ 1.000000e+15, %2 ]
  %.0.ph.i = phi ptr [ @.str.476, %18 ], [ @.str.475, %17 ], [ @.str.474, %16 ], [ @.str.473, %15 ], [ @.str.472, %14 ], [ @.str.471, %13 ], [ @.str.470, %12 ], [ @.str.469, %11 ], [ @.str.468, %2 ]
  %19 = fmul double %4, %.sink12.i
  br label %get_engr_prefix.exit

get_engr_prefix.exit:                             ; preds = %2, %.sink.split.i
  %.0 = phi double [ %4, %2 ], [ %19, %.sink.split.i ]
  %.0.i = phi ptr [ @.str.446, %2 ], [ %.0.ph.i, %.sink.split.i ]
  %20 = tail call i32 (ptr, i64, i32, i64, ptr, ...) @__snprintf_chk(ptr noundef %0, i64 noundef 240, i32 noundef 2, i64 noundef -1, ptr noundef nonnull @.str.510, double noundef %.0, ptr noundef nonnull %.0.i)
  ret void
}